target datalayout = "e-m:e-p270:32:32-p271:32:32-p272:64:64-i64:64-i128:128-f80:128-n8:16:32:64-S128"
target triple = "x86_64-pc-linux-gnu"

; Function Attrs: nounwind uwtable
define internal void @highbd_dc_predictor(ptr noundef %0, i64 noundef %1, i32 noundef %2, i32 noundef %3, ptr noundef %4, ptr noundef %5, i32 noundef %6) #0 {
  %8 = alloca ptr, align 8
  %9 = alloca i64, align 8
  %10 = alloca i32, align 4
  %11 = alloca i32, align 4
  %12 = alloca ptr, align 8
  %13 = alloca ptr, align 8
  %14 = alloca i32, align 4
  %15 = alloca i32, align 4
  %16 = alloca i32, align 4
  %17 = alloca i32, align 4
  %18 = alloca i32, align 4
  %19 = alloca i32, align 4
  store ptr %0, ptr %8, align 8
  store i64 %1, ptr %9, align 8
  store i32 %2, ptr %10, align 4
  store i32 %3, ptr %11, align 4
  store ptr %4, ptr %12, align 8
  store ptr %5, ptr %13, align 8
  store i32 %6, ptr %14, align 4
  store i32 0, ptr %18, align 4
  %20 = load i32, ptr %10, align 4
  %21 = load i32, ptr %11, align 4
  %22 = add nsw i32 %20, %21
  store i32 %22, ptr %19, align 4
  store i32 0, ptr %15, align 4
  br label %23

23:                                               ; preds = %36, %7
  %24 = load i32, ptr %15, align 4
  %25 = load i32, ptr %10, align 4
  %26 = icmp slt i32 %24, %25
  br i1 %26, label %27, label %39

27:                                               ; preds = %23
  %28 = load ptr, ptr %12, align 8
  %29 = load i32, ptr %15, align 4
  %30 = sext i32 %29 to i64
  %31 = getelementptr inbounds i16, ptr %28, i64 %30
  %32 = load i16, ptr %31, align 2
  %33 = zext i16 %32 to i32
  %34 = load i32, ptr %18, align 4
  %35 = add nsw i32 %34, %33
  store i32 %35, ptr %18, align 4
  br label %36

36:                                               ; preds = %27
  %37 = load i32, ptr %15, align 4
  %38 = add nsw i32 %37, 1
  store i32 %38, ptr %15, align 4
  br label %23, !llvm.loop !50

39:                                               ; preds = %23
  store i32 0, ptr %15, align 4
  br label %40

40:                                               ; preds = %53, %39
  %41 = load i32, ptr %15, align 4
  %42 = load i32, ptr %11, align 4
  %43 = icmp slt i32 %41, %42
  br i1 %43, label %44, label %56

44:                                               ; preds = %40
  %45 = load ptr, ptr %13, align 8
  %46 = load i32, ptr %15, align 4
  %47 = sext i32 %46 to i64
  %48 = getelementptr inbounds i16, ptr %45, i64 %47
  %49 = load i16, ptr %48, align 2
  %50 = zext i16 %49 to i32
  %51 = load i32, ptr %18, align 4
  %52 = add nsw i32 %51, %50
  store i32 %52, ptr %18, align 4
  br label %53

53:                                               ; preds = %44
  %54 = load i32, ptr %15, align 4
  %55 = add nsw i32 %54, 1
  store i32 %55, ptr %15, align 4
  br label %40, !llvm.loop !51

56:                                               ; preds = %40
  %57 = load i32, ptr %18, align 4
  %58 = load i32, ptr %19, align 4
  %59 = ashr i32 %58, 1
  %60 = add nsw i32 %57, %59
  %61 = load i32, ptr %19, align 4
  %62 = sdiv i32 %60, %61
  store i32 %62, ptr %17, align 4
  store i32 0, ptr %16, align 4
  br label %63

63:                                               ; preds = %76, %56
  %64 = load i32, ptr %16, align 4
  %65 = load i32, ptr %11, align 4
  %66 = icmp slt i32 %64, %65
  br i1 %66, label %67, label %79

67:                                               ; preds = %63
  %68 = load ptr, ptr %8, align 8
  %69 = load i32, ptr %17, align 4
  %70 = load i32, ptr %10, align 4
  %71 = sext i32 %70 to i64
  %72 = call ptr @aom_memset16(ptr noundef %68, i32 noundef %69, i64 noundef %71)
  %73 = load i64, ptr %9, align 8
  %74 = load ptr, ptr %8, align 8
  %75 = getelementptr inbounds i16, ptr %74, i64 %73
  store ptr %75, ptr %8, align 8
  br label %76

76:                                               ; preds = %67
  %77 = load i32, ptr %16, align 4
  %78 = add nsw i32 %77, 1
  store i32 %78, ptr %16, align 4
  br label %63, !llvm.loop !52

79:                                               ; preds = %63
  ret void
}

; Function Attrs: nounwind uwtable
define hidden void @aom_highbd_dc_predictor_16x16_c(ptr noundef %0, i64 noundef %1, ptr noundef %2, ptr noundef %3, i32 noundef %4) #0 {
  %6 = alloca ptr, align 8
  %7 = alloca i64, align 8
  %8 = alloca ptr, align 8
  %9 = alloca ptr, align 8
  %10 = alloca i32, align 4
  store ptr %0, ptr %6, align 8
  store i64 %1, ptr %7, align 8
  store ptr %2, ptr %8, align 8
  store ptr %3, ptr %9, align 8
  store i32 %4, ptr %10, align 4
  %11 = load ptr, ptr %6, align 8
  %12 = load i64, ptr %7, align 8
  %13 = load ptr, ptr %8, align 8
  %14 = load ptr, ptr %9, align 8
  %15 = load i32, ptr %10, align 4
  call void @highbd_dc_predictor(ptr noundef %11, i64 noundef %12, i32 noundef 16, i32 noundef 16, ptr noundef %13, ptr noundef %14, i32 noundef %15)
  ret void
}